target datalayout = "e-m:e-p270:32:32-p271:32:32-p272:64:64-i64:64-i128:128-f80:128-n8:16:32:64-S128"
target triple = "x86_64-pc-linux-gnu"

%struct.passwd = type { ptr, ptr, i32, i32, ptr, ptr, ptr }

@sPasswd = internal global i64 0, align 8
@.str.215 = private unnamed_addr constant [12 x i8] c"/etc/passwd\00", align 1
@.str.216 = private unnamed_addr constant [1 x i8] zeroinitializer, align 1

; Function Attrs: inlinehint nounwind sspstrong willreturn memory(none) uwtable
define internal i64 @RB_INT2FIX(i64 noundef %0) #5 {
  %2 = alloca i64, align 8
  %3 = alloca i64, align 8
  %4 = alloca i64, align 8
  %5 = alloca i64, align 8
  %6 = alloca i64, align 8
  %7 = alloca i64, align 8
  store i64 %0, ptr %2, align 8, !tbaa !6
  call void @llvm.lifetime.start.p0(i64 8, ptr %3) #19
  %8 = load i64, ptr %2, align 8, !tbaa !6
  store i64 %8, ptr %3, align 8, !tbaa !6
  call void @llvm.lifetime.start.p0(i64 8, ptr %4) #19
  %9 = load i64, ptr %3, align 8, !tbaa !6
  %10 = shl i64 %9, 1
  %11 = add i64 %10, 1
  store i64 %11, ptr %4, align 8, !tbaa !6
  call void @llvm.lifetime.start.p0(i64 8, ptr %5) #19
  %12 = load i64, ptr %4, align 8, !tbaa !6
  store i64 %12, ptr %5, align 8, !tbaa !6
  call void @llvm.lifetime.start.p0(i64 8, ptr %6) #19
  %13 = load i64, ptr %5, align 8, !tbaa !6
  store i64 %13, ptr %6, align 8, !tbaa !6
  call void @llvm.lifetime.start.p0(i64 8, ptr %7) #19
  %14 = load i64, ptr %6, align 8, !tbaa !6
  store i64 %14, ptr %7, align 8, !tbaa !6
  %15 = load i64, ptr %7, align 8, !tbaa !6
  call void @llvm.lifetime.end.p0(i64 8, ptr %7) #19
  call void @llvm.lifetime.end.p0(i64 8, ptr %6) #19
  call void @llvm.lifetime.end.p0(i64 8, ptr %5) #19
  call void @llvm.lifetime.end.p0(i64 8, ptr %4) #19
  call void @llvm.lifetime.end.p0(i64 8, ptr %3) #19
  ret i64 %15
}

; Function Attrs: nounwind sspstrong uwtable
define internal i64 @safe_setup_filesystem_str(ptr noundef %0) #0 {
  %2 = alloca ptr, align 8
  store ptr %0, ptr %2, align 8, !tbaa !10
  %3 = load ptr, ptr %2, align 8, !tbaa !10
  %4 = icmp eq ptr %3, null
  br i1 %4, label %5, label %6

5:                                                ; preds = %1
  store ptr @.str.216, ptr %2, align 8, !tbaa !10
  br label %6

6:                                                ; preds = %5, %1
  %7 = load ptr, ptr %2, align 8, !tbaa !10
  %8 = call i64 @rb_filesystem_str_new_cstr(ptr noundef %7)
  ret i64 %8
}

; Function Attrs: inlinehint nounwind sspstrong uwtable
define internal i64 @rb_uint2num_inline(i32 noundef %0) #3 {
  %2 = alloca i64, align 8
  %3 = alloca i32, align 4
  store i32 %0, ptr %3, align 4, !tbaa !15
  %4 = load i32, ptr %3, align 4, !tbaa !15
  %5 = zext i32 %4 to i64
  %6 = icmp slt i64 %5, 4611686018427387904
  br i1 %6, label %7, label %11

7:                                                ; preds = %1
  %8 = load i32, ptr %3, align 4, !tbaa !15
  %9 = zext i32 %8 to i64
  %10 = call i64 @RB_INT2FIX(i64 noundef %9) #20
  store i64 %10, ptr %2, align 8
  br label %15

11:                                               ; preds = %1
  %12 = load i32, ptr %3, align 4, !tbaa !15
  %13 = zext i32 %12 to i64
  %14 = call i64 @rb_uint2big(i64 noundef %13)
  store i64 %14, ptr %2, align 8
  br label %15

15:                                               ; preds = %11, %7
  %16 = load i64, ptr %2, align 8
  ret i64 %16
}

; Function Attrs: nounwind sspstrong uwtable
define internal i64 @safe_setup_str(ptr noundef %0) #0 {
  %2 = alloca ptr, align 8
  store ptr %0, ptr %2, align 8, !tbaa !10
  %3 = load ptr, ptr %2, align 8, !tbaa !10
  %4 = icmp eq ptr %3, null
  br i1 %4, label %5, label %6

5:                                                ; preds = %1
  store ptr @.str.216, ptr %2, align 8, !tbaa !10
  br label %6

6:                                                ; preds = %5, %1
  %7 = load ptr, ptr %2, align 8, !tbaa !10
  %8 = call i64 @rb_str_new_cstr(ptr noundef %7)
  ret i64 %8
}

; Function Attrs: nounwind sspstrong uwtable
define internal i64 @safe_setup_locale_str(ptr noundef %0) #0 {
  %2 = alloca ptr, align 8
  store ptr %0, ptr %2, align 8, !tbaa !10
  %3 = load ptr, ptr %2, align 8, !tbaa !10
  %4 = icmp eq ptr %3, null
  br i1 %4, label %5, label %6

5:                                                ; preds = %1
  store ptr @.str.216, ptr %2, align 8, !tbaa !10
  br label %6

6:                                                ; preds = %5, %1
  %7 = load ptr, ptr %2, align 8, !tbaa !10
  %8 = call i64 @rb_locale_str_new_cstr(ptr noundef %7)
  ret i64 %8
}

; Function Attrs: nounwind sspstrong uwtable
define internal i64 @setup_passwd(ptr noundef %0) #0 {
  %2 = alloca ptr, align 8
  store ptr %0, ptr %2, align 8, !tbaa !19
  %3 = load ptr, ptr %2, align 8, !tbaa !19
  %4 = icmp eq ptr %3, null
  br i1 %4, label %5, label %6

5:                                                ; preds = %1
  call void @rb_sys_fail(ptr noundef @.str.215) #22
  unreachable

6:                                                ; preds = %1
  %7 = load i64, ptr @sPasswd, align 8, !tbaa !6
  %8 = load ptr, ptr %2, align 8, !tbaa !19
  %9 = getelementptr inbounds nuw %struct.passwd, ptr %8, i32 0, i32 0
  %10 = load ptr, ptr %9, align 8, !tbaa !34
  %11 = call i64 @safe_setup_locale_str(ptr noundef %10)
  %12 = load ptr, ptr %2, align 8, !tbaa !19
  %13 = getelementptr inbounds nuw %struct.passwd, ptr %12, i32 0, i32 1
  %14 = load ptr, ptr %13, align 8, !tbaa !36
  %15 = call i64 @safe_setup_str(ptr noundef %14)
  %16 = load ptr, ptr %2, align 8, !tbaa !19
  %17 = getelementptr inbounds nuw %struct.passwd, ptr %16, i32 0, i32 2
  %18 = load i32, ptr %17, align 8, !tbaa !37
  %19 = call i64 @rb_uint2num_inline(i32 noundef %18)
  %20 = load ptr, ptr %2, align 8, !tbaa !19
  %21 = getelementptr inbounds nuw %struct.passwd, ptr %20, i32 0, i32 3
  %22 = load i32, ptr %21, align 4, !tbaa !38
  %23 = call i64 @rb_uint2num_inline(i32 noundef %22)
  %24 = load ptr, ptr %2, align 8, !tbaa !19
  %25 = getelementptr inbounds nuw %struct.passwd, ptr %24, i32 0, i32 4
  %26 = load ptr, ptr %25, align 8, !tbaa !39
  %27 = call i64 @safe_setup_locale_str(ptr noundef %26)
  %28 = load ptr, ptr %2, align 8, !tbaa !19
  %29 = getelementptr inbounds nuw %struct.passwd, ptr %28, i32 0, i32 5
  %30 = load ptr, ptr %29, align 8, !tbaa !40
  %31 = call i64 @safe_setup_filesystem_str(ptr noundef %30)
  %32 = load ptr, ptr %2, align 8, !tbaa !19
  %33 = getelementptr inbounds nuw %struct.passwd, ptr %32, i32 0, i32 6
  %34 = load ptr, ptr %33, align 8, !tbaa !41
  %35 = call i64 @safe_setup_filesystem_str(ptr noundef %34)
  %36 = call i64 (i64, ...) @rb_struct_new(i64 noundef %7, i64 noundef %11, i64 noundef %15, i64 noundef %19, i64 noundef %23, i64 noundef %27, i64 noundef %31, i64 noundef %35, i32 noundef 0)
  ret i64 %36
}

; Function Attrs: nounwind sspstrong uwtable
define internal i64 @passwd_iterate(i64 noundef %0) #0 {
  %2 = alloca i64, align 8
  %3 = alloca ptr, align 8
  store i64 %0, ptr %2, align 8, !tbaa !6
  call void @llvm.lifetime.start.p0(i64 8, ptr %3) #19
  call void @setpwent()
  br label %4

4:                                                ; preds = %7, %1
  %5 = call ptr @getpwent()
  store ptr %5, ptr %3, align 8, !tbaa !19
  %6 = icmp ne ptr %5, null
  br i1 %6, label %7, label %11

7:                                                ; preds = %4
  %8 = load ptr, ptr %3, align 8, !tbaa !19
  %9 = call i64 @setup_passwd(ptr noundef %8)
  %10 = call i64 @rb_yield(i64 noundef %9)
  br label %4, !llvm.loop !46

11:                                               ; preds = %4
  call void @llvm.lifetime.end.p0(i64 8, ptr %3) #19
  ret i64 4
}